; Function Attrs: mustprogress nofree norecurse nosync nounwind willreturn memory(read, inaccessiblemem: none) uwtable
define dso_local noundef zeroext i1 @_ZNK16cmUVProcessChain8FinishedEv(ptr noundef nonnull readonly align 8 captures(none) dereferenceable(8) %0) local_unnamed_addr #10 align 2 {
  %2 = load ptr, ptr %0, align 8
  %3 = getelementptr inbounds nuw i8, ptr %2, i64 144
  %4 = load i32, ptr %3, align 8
  %5 = zext i32 %4 to i64
  %6 = getelementptr inbounds nuw i8, ptr %2, i64 152
  %7 = getelementptr inbounds nuw i8, ptr %2, i64 160
  %8 = load ptr, ptr %7, align 8
  %9 = load ptr, ptr %6, align 8
  %10 = ptrtoint ptr %8 to i64
  %11 = ptrtoint ptr %9 to i64
  %12 = sub i64 %10, %11
  %13 = ashr exact i64 %12, 3
  %14 = icmp ule i64 %13, %5
  ret i1 %14
}